; ModuleID = '22/921.c'
source_filename = "22/921.c"
target datalayout = "e-m:e-p270:32:32-p271:32:32-p272:64:64-i64:64-f80:128-n8:16:32:64-S128"
target triple = "x86_64-pc-linux-gnu"

@.str = private unnamed_addr constant [5 x i8] c"%d%c\00", align 1
@.str.1 = private unnamed_addr constant [3 x i8] c"%d\00", align 1
@.str.2 = private unnamed_addr constant [3 x i8] c"No\00", align 1

; Function Attrs: noinline nounwind uwtable
define dso_local i32 @main() #0 {
  %1 = alloca i32, align 4
  %2 = alloca i8, align 1
  %3 = alloca i32, align 4
  %4 = alloca i32, align 4
  %5 = alloca i32, align 4
  store i32 0, i32* %1, align 4
  store i8 44, i8* %2, align 1
  store i32 -1, i32* %4, align 4
  store i32 -1, i32* %5, align 4
  br label %6

6:                                                ; preds = %29, %0
  %7 = load i8, i8* %2, align 1
  %8 = sext i8 %7 to i32
  %9 = icmp eq i32 %8, 44
  br i1 %9, label %10, label %30

10:                                               ; preds = %6
  %11 = call i32 (i8*, ...) @__isoc99_scanf(i8* getelementptr inbounds ([5 x i8], [5 x i8]* @.str, i64 0, i64 0), i32* %3, i8* %2)
  %12 = load i32, i32* %3, align 4
  %13 = load i32, i32* %4, align 4
  %14 = icmp sgt i32 %12, %13
  br i1 %14, label %15, label %18

15:                                               ; preds = %10
  %16 = load i32, i32* %4, align 4
  store i32 %16, i32* %5, align 4
  %17 = load i32, i32* %3, align 4
  store i32 %17, i32* %4, align 4
  br label %29

18:                                               ; preds = %10
  %19 = load i32, i32* %3, align 4
  %20 = load i32, i32* %5, align 4
  %21 = icmp sgt i32 %19, %20
  br i1 %21, label %22, label %28

22:                                               ; preds = %18
  %23 = load i32, i32* %3, align 4
  %24 = load i32, i32* %4, align 4
  %25 = icmp slt i32 %23, %24
  br i1 %25, label %26, label %28

26:                                               ; preds = %22
  %27 = load i32, i32* %3, align 4
  store i32 %27, i32* %5, align 4
  br label %28

28:                                               ; preds = %26, %22, %18
  br label %29

29:                                               ; preds = %28, %15
  br label %6

30:                                               ; preds = %6
  %31 = load i32, i32* %5, align 4
  %32 = icmp ne i32 %31, -1
  br i1 %32, label %33, label %36

33:                                               ; preds = %30
  %34 = load i32, i32* %5, align 4
  %35 = call i32 (i8*, ...) @printf(i8* getelementptr inbounds ([3 x i8], [3 x i8]* @.str.1, i64 0, i64 0), i32 %34)
  br label %38

36:                                               ; preds = %30
  %37 = call i32 (i8*, ...) @printf(i8* getelementptr inbounds ([3 x i8], [3 x i8]* @.str.2, i64 0, i64 0))
  br label %38

38:                                               ; preds = %36, %33
  ret i32 0
}

declare dso_local i32 @__isoc99_scanf(i8*, ...) #1

declare dso_local i32 @printf(i8*, ...) #1


!llvm.module.flags = !{!0}
!llvm.ident = !{!1}

!0 = !{i32 1, !"wchar_size", i32 4}
!1 = !{!"clang version 10.0.0-4ubuntu1 "}
