; ModuleID = 'source-C-CXX/21/921.c'
source_filename = "source-C-CXX/21/921.c"
target datalayout = "e-m:e-p270:32:32-p271:32:32-p272:64:64-i64:64-f80:128-n8:16:32:64-S128"
target triple = "x86_64-pc-linux-gnu"

@.str = private unnamed_addr constant [5 x i8] c"%d%c\00", align 1
@.str.1 = private unnamed_addr constant [3 x i8] c"%d\00", align 1
@.str.2 = private unnamed_addr constant [3 x i8] c"No\00", align 1

; Function Attrs: nofree nounwind sspstrong uwtable
define dso_local i32 @main() local_unnamed_addr #0 {
  %1 = alloca i8, align 1
  %2 = alloca i32, align 4
  call void @llvm.lifetime.start.p0i8(i64 1, i8* nonnull %1) #3
  store i8 44, i8* %1, align 1, !tbaa !5
  %3 = bitcast i32* %2 to i8*
  call void @llvm.lifetime.start.p0i8(i64 4, i8* nonnull %3) #3
  br label %4

4:                                                ; preds = %0, %4
  %5 = phi i32 [ -1, %0 ], [ %15, %4 ]
  %6 = phi i32 [ -1, %0 ], [ %14, %4 ]
  %7 = call i32 (i8*, ...) @__isoc99_scanf(i8* getelementptr inbounds ([5 x i8], [5 x i8]* @.str, i64 0, i64 0), i32* nonnull %2, i8* nonnull %1)
  %8 = load i32, i32* %2, align 4, !tbaa !8
  %9 = icmp sgt i32 %8, %6
  %10 = icmp sgt i32 %8, %5
  %11 = icmp slt i32 %8, %6
  %12 = select i1 %10, i1 %11, i1 false
  %13 = select i1 %12, i32 %8, i32 %5
  %14 = select i1 %9, i32 %8, i32 %6
  %15 = select i1 %9, i32 %6, i32 %13
  %16 = load i8, i8* %1, align 1, !tbaa !5
  %17 = icmp eq i8 %16, 44
  br i1 %17, label %4, label %18, !llvm.loop !10

18:                                               ; preds = %4
  %19 = icmp eq i32 %15, -1
  br i1 %19, label %22, label %20

20:                                               ; preds = %18
  %21 = call i32 (i8*, ...) @printf(i8* nonnull dereferenceable(1) getelementptr inbounds ([3 x i8], [3 x i8]* @.str.1, i64 0, i64 0), i32 %15)
  br label %24

22:                                               ; preds = %18
  %23 = call i32 (i8*, ...) @printf(i8* nonnull dereferenceable(1) getelementptr inbounds ([3 x i8], [3 x i8]* @.str.2, i64 0, i64 0))
  br label %24

24:                                               ; preds = %22, %20
  call void @llvm.lifetime.end.p0i8(i64 4, i8* nonnull %3) #3
  call void @llvm.lifetime.end.p0i8(i64 1, i8* nonnull %1) #3
  ret i32 0
}

; Function Attrs: argmemonly mustprogress nofree nosync nounwind willreturn
declare void @llvm.lifetime.start.p0i8(i64 immarg, i8* nocapture) #1

; Function Attrs: nofree nounwind
declare noundef i32 @__isoc99_scanf(i8* nocapture noundef readonly, ...) local_unnamed_addr #2

; Function Attrs: nofree nounwind
declare noundef i32 @printf(i8* nocapture noundef readonly, ...) local_unnamed_addr #2

; Function Attrs: argmemonly mustprogress nofree nosync nounwind willreturn
declare void @llvm.lifetime.end.p0i8(i64 immarg, i8* nocapture) #1


!llvm.module.flags = !{!0, !1, !2, !3}
!llvm.ident = !{!4}

!0 = !{i32 1, !"wchar_size", i32 4}
!1 = !{i32 7, !"PIC Level", i32 2}
!2 = !{i32 7, !"PIE Level", i32 2}
!3 = !{i32 7, !"uwtable", i32 1}
!4 = !{!"clang version 13.0.0"}
!5 = !{!6, !6, i64 0}
!6 = !{!"omnipotent char", !7, i64 0}
!7 = !{!"Simple C/C++ TBAA"}
!8 = !{!9, !9, i64 0}
!9 = !{!"int", !6, i64 0}
!10 = distinct !{!10, !11}
!11 = !{!"llvm.loop.mustprogress"}
